target datalayout = "e-m:e-p270:32:32-p271:32:32-p272:64:64-i64:64-i128:128-f80:128-n8:16:32:64-S128"
target triple = "x86_64-pc-linux-gnu"

%struct.altsvcinfo = type { ptr, %struct.Curl_llist, i64 }
%struct.Curl_llist = type { ptr, ptr, ptr, i64 }

@Curl_ccalloc = external global ptr, align 8

; Function Attrs: nounwind uwtable
define hidden ptr @Curl_altsvc_init() #0 {
  %1 = alloca ptr, align 8
  %2 = alloca ptr, align 8
  %3 = alloca i32, align 4
  call void @llvm.lifetime.start.p0(i64 8, ptr %2) #7
  %4 = load ptr, ptr @Curl_ccalloc, align 8, !tbaa !7
  %5 = call ptr %4(i64 noundef 1, i64 noundef 48)
  store ptr %5, ptr %2, align 8, !tbaa !9
  %6 = load ptr, ptr %2, align 8, !tbaa !9
  %7 = icmp ne ptr %6, null
  br i1 %7, label %9, label %8

8:                                                ; preds = %0
  store ptr null, ptr %1, align 8
  store i32 1, ptr %3, align 4
  br label %15

9:                                                ; preds = %0
  %10 = load ptr, ptr %2, align 8, !tbaa !9
  %11 = getelementptr inbounds nuw %struct.altsvcinfo, ptr %10, i32 0, i32 1
  call void @Curl_llist_init(ptr noundef %11, ptr noundef null)
  %12 = load ptr, ptr %2, align 8, !tbaa !9
  %13 = getelementptr inbounds nuw %struct.altsvcinfo, ptr %12, i32 0, i32 2
  store i64 8, ptr %13, align 8, !tbaa !11
  %14 = load ptr, ptr %2, align 8, !tbaa !9
  store ptr %14, ptr %1, align 8
  store i32 1, ptr %3, align 4
  br label %15

15:                                               ; preds = %9, %8
  call void @llvm.lifetime.end.p0(i64 8, ptr %2) #7
  %16 = load ptr, ptr %1, align 8
  ret ptr %16
}