; Function Attrs: nounwind uwtable
define hidden ptr @Curl_altsvc_init() local_unnamed_addr #1 {
  %1 = load ptr, ptr @Curl_ccalloc, align 8, !tbaa !3
  %2 = tail call ptr %1(i64 noundef 1, i64 noundef 48) #12
  %.not = icmp eq ptr %2, null
  br i1 %.not, label %6, label %3

3:                                                ; preds = %0
  %4 = getelementptr inbounds nuw i8, ptr %2, i64 8
  tail call void @Curl_llist_init(ptr noundef nonnull %4, ptr noundef null) #12
  %5 = getelementptr inbounds nuw i8, ptr %2, i64 40
  store i64 8, ptr %5, align 8, !tbaa !7
  br label %6

6:                                                ; preds = %0, %3
  ret ptr %2
}